(dp0
I40004
(lp1
S'127.0.0.3'
p2
aI40004
aS'Joao'
p3
aS'21'
p4
aS'm'
p5
aS'on'
p6
aS'images/homem1.png'
p7
aS'40003'
p8
asI40005
(lp9
S'127.0.0.2'
p10
aI40005
aS'Alice'
p11
aS'23'
p12
aS'f'
p13
aS'off'
p14
aS'images/mulher2.png'
p15
aS'40003'
p16
as.