(dp0
I40002
(lp1
S'127.0.0.6'
p2
aI40002
aS'Joao'
p3
aS'25'
p4
aS'f'
p5
aS'on'
p6
aS'images/homem1.png'
p7
aS'40003'
p8
asI40004
(lp9
S'127.0.0.3'
p10
aI40004
aS'Maria'
p11
aS'27'
p12
ag5
aS'off'
p13
aS'images/mulher1.png'
p14
aS'40003'
p15
asI40005
(lp16
S'127.0.0.2'
p17
aI40005
aS'Alice'
p18
aS'23'
p19
ag5
aS'off'
p20
aS'images/mulher2.png'
p21
aS'40003'
p22
as.